; Function Attrs: mustprogress uwtable
define dso_local void @_ZN7cmState25SetCacheEntryBoolPropertyERKNSt7__cxx1112basic_stringIcSt11char_traitsIcESaIcEEES7_b(ptr noundef nonnull readonly align 8 captures(none) dereferenceable(705) %0, ptr noundef nonnull align 8 dereferenceable(32) %1, ptr noundef nonnull align 8 dereferenceable(32) %2, i1 noundef zeroext %3) local_unnamed_addr #5 align 2 {
  %5 = getelementptr inbounds nuw i8, ptr %0, i64 296
  %6 = load ptr, ptr %5, align 8, !tbaa !120
  %7 = tail call noundef ptr @_ZN14cmCacheManager13GetCacheEntryERKNSt7__cxx1112basic_stringIcSt11char_traitsIcESaIcEEE(ptr noundef nonnull align 8 dereferenceable(60) %6, ptr noundef nonnull align 8 dereferenceable(32) %1)
  %.not.i = icmp eq ptr %7, null
  br i1 %.not.i, label %_ZN14cmCacheManager25SetCacheEntryBoolPropertyERKNSt7__cxx1112basic_stringIcSt11char_traitsIcESaIcEEES7_b.exit, label %8

8:                                                ; preds = %4
  tail call void @_ZN14cmCacheManager10CacheEntry11SetPropertyERKNSt7__cxx1112basic_stringIcSt11char_traitsIcESaIcEEEb(ptr noundef nonnull align 8 dereferenceable(97) %7, ptr noundef nonnull align 8 dereferenceable(32) %2, i1 noundef zeroext %3)
  br label %_ZN14cmCacheManager25SetCacheEntryBoolPropertyERKNSt7__cxx1112basic_stringIcSt11char_traitsIcESaIcEEES7_b.exit

_ZN14cmCacheManager25SetCacheEntryBoolPropertyERKNSt7__cxx1112basic_stringIcSt11char_traitsIcESaIcEEES7_b.exit: ; preds = %4, %8
  ret void
}